(lp1
(dp2
S'NOMBRE'
p3
VViejo amigo
p4
sS'o_tema'
p5
(dp6
S'x_png64Blancas'
p7
V
sS'x_transNegras'
p8
I0
sS'x_png64Thumb'
p9
ViVBORw0KGgoAAAANSUhEUgAAAEAAAABACAIAAAAlC+aJAAAAA3NCSVQICAjb4U/gAAAACXBIWXMAAA7EAAAOxAGVKw4bAAAGZUlEQVRogd1aXVMbZRR+N9kkkM0nDSULgQ0lNHwlBAhCW6daQKvT3tTWO28cvVH/ko4X6lVrvRfwonXGD6Al4Ehl7MCShgQ2y25KaJoNZL3YBZNzgtPojEl4rs4+83D2HPK+Z8/7Qd149/rGJk8aE91+jt7Y5H9fe1LrSP49DBVZH8v2+LyAvDb5Wkeru5yjwsHeJjNdStEm841rV+2WMtJud1wZGQIOmxn7G6OQ9Pt8FzkfIN+cGO9s81SRgJk2HhVVQG4LwuFRsZxTVUIMFAW4nXRaOSxTFotFKfMcOMznX67zzwDpdNg9Lgcg/9x6hsLRUfZ/+uTTz0LhCFCIYlqSJECyXpax2QDJ83yhoGj21es3NSMQ6AWygqLwW3DWMQzDsu0njx8QQgiRpD1RFIFyJ5X85uuvKicQCkdGxibBHywsLvCJFCDH/QE/5wfkUz7+/EUekNihLMurT9YB6fZ4sTK2srwR3wZkm5ctfaw8hBoIegKXo6PnXXBI1C3YNu/EUFCz9QSMBiNtNNYupOpA00ajQY9cnwMPf12oXTxVI55IxBMJzW74OVBWhUQxvbAIfwqj0RgdiwJSFNOCIAAy0BOgwDeBEOyQoijssFhUK73aUOHVu2V1qSwBSZJwxYyORYfRx2FufhbX8tu37rhcLkB+8eXngHE6nXfeex+Qm/zm/A9zgAyHhkdHxgD5eOll6WPDDyE9gYlIpNXZMGXUYXdcHQ1rtp5AajclZLK1C6k6vFQK68dLAH0O8Ntw6NczlHwulc9pdsPPgbIqxHrZcX8AKEQxPTc/C0iWZXGbGVuNFRQFkNNTM4ApKAp2yDA2rJQkCSuV3P6pCTA2G+4xBUHAFTMQ6MXKxaWFTCYDyJnptwAjy/KDHx8AkuvisMNMRsavdlgtpY/HHUXjNEIaTgLWE7g5PeX3nqtdPNVhMNh3LRrSbH0IxdbW9p4f1C6k6rCVSOSyjGbrCWzE4dq0nrGf3d/P6lP5bJVRnuef8nGgCPQEbt+6A8jYamxxCTaPlyYvM1YGkPfu3wUMY2WwQ0HYxUo/142V62srpyZQKCh4VU5RFO4xC4qCKyZjZbASywghWCZnZKxUVRUrTWZz6aM+hDxud5PZhN9Un7CYza1up2brCUQGB8677LULqTp0+Xx9x7t3+hD67Y8/9qQKv3V9YiuRyMhNmq0nkBLStYunauTz+d28PlfPVhkNBHorbi3ide301Azu0u7dv4sryUcffgwYWZaxQ66Lw8rYyjJWVm7mGhd6Ag6Hw2ox/7O0rsC26scFx3ujoyPec87axVMd/J2dI8EezdbnwPcPHsIdqTrGZjyeSCY1W0+gWCyerq9HFA4PNaO8F1IUWZaBlKIopxOOropK3MkRQrDs4MUBdmgym7FSVVWspEmx/LEE/BaPz06iY1G8Ezg3P4vXtf9xa/Hb7+4BMhwaxsrHSz+XPp6VMhq8cMHJNNU2lFeHy+m82NWh2XoCLpfLba8wgusTBoOB69CP+vQ58MujR7WLp2rsSdLsT4ua3fBzoHxnjmHcHnjDoFhUN/lNQDKMjeviACkIu3IGlkIsM5nN2OHBQRYrDQaqovLUBFi2vWI3is9Opqdm8E7gq3ejuGJyXRxub2Mry/jVZ7QbHQxe9LY0TDPX4naP9OnNnJ5Ai8N+eHhUu5Cqg9FIW5v0gXR80L2wVLt4qoaQFoS0fsjb8HMAnBPvxVaWgcJoNIRDw4CUJCmDKqaf61ZVeC8JO1RVFTs0GCisPDoqYmVmb+fUBERRxPdzomNRfNr8vx10j0fHAXlGu9HxSKTZ1DCLSpvNNtqvH0bqCWzv7J52q64Okc1mM9kXmq3PgUQSDv06x9Pjudrwc6CsCu2kkuBOICFE3N0GN1wIIUpuHzRVhJD1tRVw+kBQ70UIoUkRVBJCyMFBFiszeztYuQqq7UB/H0EwmUwmGp4ccx3syU21EzQ3wbcSQjrbWYsRKq1ISdPmQGc7IE0mkwUdtXDtLF3i0O12e71elmXDoaHKQygaGpoM9wNyoLd36EJnOUe9c/X1FntzKdVktb19edxMl3n2trG3pq7ABCwWF1qIjw0OXInA+8hdPl8k+PcdCIvFkkqlksmkx+Op/AvUEC0u1/kW+DUEYFmWENLc3HxpcoLu9sN1UD3A0wYXhqWgabq/L5jL5Vrcrr8A63Za4c5XwWwAAAAASUVORK5CYII=
p10
sS'x_colorFondo'
p11
L4294769635L
sS'o_fAlternativa'
p12
(dp13
S'opacidad'
p14
F0.80000000000000004
sS'color'
p15
L4278215680L
sS'vuelo'
p16
I5
sS'posicion'
p17
(dp18
S'alto'
p19
I16
sS'orden'
p20
I9
sS'ancho'
p21
I128
sS'angulo'
p22
I0
sS'y'
I16
sS'x'
I0
ssS'forma'
p23
S'3'
sS'colorinterior2'
p24
I-1
sS'anchoCasilla'
p25
I36
sS'tipo'
p26
I1
sS'destino'
p27
S'm'
sS'altocabeza'
p28
I20
sg21
I4
sS'png64'
p29
S'iVBORw0KGgoAAAANSUhEUgAAACAAAAAgCAYAAABzenr0AAAABHNCSVQICAgIfAhkiAAAAAlwSFlz\nAAASdAAAEnQB3mYfeAAAAjRJREFUWIXF071rU3EUxvHPTXx/qV0cpL4hOPi2KNI3LUJx1K1bQWxD\ndwfn/gkOgoOk0YKbmy5CDWrSKohURC2Iiw7FQRCl9a3SXIeYtum9Sd9y67Pd8xzO+f7OOZf/rKDq\n67KjUo4hb8iX9QXo14thgRRIOeWm8fUBKL/89VzzikoOyvmYJEC5YdrxSPMyXkHG3uQBQg+FPsUA\n7BcqGrAnWYAhX6SdFZqMgTioZNRlu5MAqP4L+hyQUsS+SGboPdoa/XdU7718cB1CHyKZgcMYc0lz\nIwGC2OiAPUpGcSjGnVDSJmeqEQDRy4ebPpnV9m/si3VUYEyv7ckBwC2fzWjHu4gXOGGLMVdsXStA\n/AoW6pJmGz3FkYgXGrdNh+t+rxag9gQqGvZVSSveRLzAST8U9diUHADkTPmlDa9iIE5rUjBoQ3IA\ncMd3O7XjZQxEq0kFPdLJAcA1P/3RgRcxbrsmjw2urObKAGDYL9904nnEC5wx6ZHlHPeqAeCuGS06\n8SzG7ZKRXy7Esklj1SNtlyfojHHzss4jrFdidROo6K5ZLbpQiHG7ZTywxCPXNoGKBqVMyuNcjYyC\n0ITNrrphuvEAlVoZI+iumRGaNmTnwtDaVrC4fHnnIzUzAjv06aoONV6BjFLdjOx830ZOoKJQqFg3\no9+FJAHgbV03cM+/6ScDsNlVYfW1R9QvRzI3MK8+XVKe1PSzgqRWUFZOQVYgdLFWSrIAFQ25Lysl\ndHsuVtK0Lr2X0l8fGYDPRgZXZQAAAABJRU5ErkJggg==\n'
p30
sS'grosor'
p31
I4
sS'a1h8'
p32
S'd2d6'
p33
sS'redondeos'
p34
I01
sS'descuelgue'
p35
I6
sS'colorinterior'
p36
L4278227200L
sS'siMovible'
p37
I01
ssS'x_colorTexto'
p38
L4286277729L
sS'o_fActivo'
p39
(dp40
g14
F1
sg15
L4288033280L
sg16
I4
sg17
(dp41
g19
I16
sg20
I8
sg21
I128
sg22
I0
sS'y'
I16
sS'x'
I0
ssg23
S'3'
sg24
I-1
sg25
I36
sg26
I1
sg27
S'm'
sg28
I22
sg21
I5
sg29
S'iVBORw0KGgoAAAANSUhEUgAAACAAAAAgCAYAAABzenr0AAAABHNCSVQICAgIfAhkiAAAAAlwSFlz\nAAASdAAAEnQB3mYfeAAAAkVJREFUWIXl1jFoE1Ecx/Hv/9IYi7SoiLYuDnZQsGDurGYwYB2qUMVB\nO1VwUKhJAw4VHRRElwqiEDQJgg6iDpXqoI3YLloVTCGXCi4OTiXQTNpBCbX1noNJuByhCM09EP/b\n+73jfx947/Ee/O8l7kFyL+1Bh85yC3MjOco6AEbdz5fJ4fC5dZHszQitWgFBh05gJwBCb+tPniW7\nCGkDlFuYQ/HaNXc42M7YXYugFsBIjnI5RD/wyjV/7Jfi4ZMBAn4B6hpPFVnuW8d4IEQ3sKMS7/rx\nlW09JZ5Pg2o2wPAG576wGBAGgLFqJsKpLSYp5Tk1vgAAhmyWNm1nUCkeuOKz6TC3mo1YsdkVMDab\npAWGaqFiNDbLJWnScqy4uaZBZefJ5jtYjxCpkKP5DpazJd76DgC4CkyUmMx3sAYhWkEc7N/K9+w8\nH1YL+Ov1VCAZi8sorrniRLxASgugWimT8wI3ajCHM8Mfua8NAJAJk1DCbVeTk7ECj7UBAFK7OS0G\n92qB4kR8lqfaAAAZk0EFj1zR0XiBCW0AgHSY4wjj1bESDg3bTGkDAKRNjgAvak2F3pjNG20AgJRF\nnygmq2NHiCZs3msDAGQsDijXm8IRIgmbGW0AgDsW+w3FO1e0B7BEKMZsXvoOqCD2GYqcN48VMLyX\nWMPreLWVsJkxFD3ePGMy6s18AQA4gtkgvuh96PoGEKHYKA+28a3uO78AULlBTa4DF+omltgY//QH\n4iugWskuQi1tLIiwFhpvRi2V7maDHw/bf7t+A9vgnl+kZOTIAAAAAElFTkSuQmCC\n'
p42
sg31
I2
sg32
S'd2d6'
p43
sg34
I00
sg35
I6
sg36
L4294923520L
sg37
I01
ssS'x_transBlancas'
p44
I0
sS'x_extendedColor'
p45
I0
sS'x_png64Negras'
p46
V
sS'o_fRival'
p47
(dp48
g14
F1
sg15
L4278190335L
sg16
I4
sg17
(dp49
g19
I16
sg20
I8
sg21
I128
sg22
I0
sS'y'
I16
sS'x'
I0
ssg23
S'3'
sg24
I-1
sg25
I36
sg26
I1
sg27
S'm'
sg28
I22
sg21
I5
sg29
S'iVBORw0KGgoAAAANSUhEUgAAACAAAAAgCAYAAABzenr0AAAABHNCSVQICAgIfAhkiAAAAAlwSFlz\nAAASdAAAEnQB3mYfeAAAAQlJREFUWIXt1qFuAkEQxvH/QS4E04Sn4AHaBINAIRocEklyhrpWgiWt\nAgcSiazD9TF4Anxl5YfZa+4mh2Smol8yZs38ZrPJDvynFj2A+qBuVPMzSKCvAIT6qXlZJ1DHE9BN\nk1cRn6DcG3EyiCOo7YnopMmriAOo5YnI0+RVxA6UeSLaafIqYuONaIH2BrH2RmSgrUEsHQG/iLVB\nvEYgVgaxcEYA6M0g5hGIF4OYRSDmBjGNQMwMYhKBmBrEOAIxMYhRBGJsEMMIxMggBhGIoUE8ggrQ\nsydiYBBluX5iTw2Ad09AceMWaovuPdesy43z7zv2tFEG+mi4hZ4jAtKi+xP0GGuQXmDzP5orKuAA\n2H/KWT0AAAAASUVORK5CYII=\n'
p50
sg31
I2
sg32
S'd2d6'
p51
sg34
I00
sg35
I6
sg36
L4278225358L
sg37
I01
ssS'x_siTemaDefecto'
p52
I00
sS'x_colorNegras'
p53
L4284770927L
sS'x_colorBlancas'
p54
L4291283923L
sS'x_colorExterior'
p55
L4278190080L
sS'x_colorFrontera'
p56
L4294967295L
sS'x_png64Fondo'
p57
V
sS'o_fTransicion'
p58
(dp59
g14
F1
sg15
L4281860181L
sg16
I5
sg17
(dp60
g19
I16
sg20
I9
sg21
I128
sg22
I0
sS'y'
I16
sS'x'
I0
ssg23
S'3'
sg24
I-1
sg25
I36
sg26
I1
sg27
S'm'
sg28
I20
sg21
I4
sg29
S'iVBORw0KGgoAAAANSUhEUgAAACAAAAAgCAYAAABzenr0AAAABHNCSVQICAgIfAhkiAAAAAlwSFlz\nAAASdAAAEnQB3mYfeAAAAnxJREFUWIXFl89LFGEYxz/P7JpLpQRRIJRJEIFJHRbdWX8WEXnJMhpP\n/hue/U8ioZMDFnbLxHZ13TH7QYXboUsSIQR5SMMftD4d1kV3ZnZd1xn7Hl6Y9/vlfT487/MeBv6z\nZP9HB1ZrBL2myLSDvXqsAAmsYUHHQIxdK+4w/v5YADqwWg30817xoplvyTKxHCaAsbu0uYsD7BBJ\ndzB4IXQA4BWw4jYFmg0is3EGm0IFcLBXDYwehR/eiLTUEZ3rxjoXBkDJK0jy8JJizIJc9Ml+Bcyg\nX0fJvWeZWN4h3wn6zSd7RSHTx/0zQQKI32acwaY6onPAZR87Z7BlzjO5FgSAZ/IB3vFsJQomhba7\n1ZqnPnOd4VNBAPh2oKh2Hpw1qMsIXPW6+hEk6WBvHAXAtwNFLfL8V4xtE/SL15Ubis71019/FICK\nHSiqk4GGPCfmBWlze4ouriHdOeztWgAqdqCoeSbXNoiZhbaXSpD2Rkj30RcNDQDgE0//gCQVPvjY\niU3Opy2sSGgAAA72RoyTncBbtyeQ/A6vYfRQZx4qDJBibPM3dCm88bG7EyzNUOVs1QQAkMPejvGz\nSyHr9gTpNXk0XS1ETQAAKVJ/m6FH0YzXlVsJrKlqIKpuVXmNGgmWZgTp9TFfOtj9gIYIUIAwyU0D\nN/1cRdNALoaMpLDXQwAonJXAmhK4XS6gsL6A3bB/r+YZ8Dt/AfsOMFWWEE4nGSq5qiABANTBvlsx\ngKbCBCjUgNlKAZOhe2ECoOjSAYlJducvFIAYMqKwXiljYj2GYF+BR0mGet13vl8OtvdnJEhlGU87\n2AIyUC4TKkBRDuMvHGwDeLJXeKvxOGofqH8LNrAy8SEDDQAAAABJRU5ErkJggg==\n'
p61
sg31
I4
sg32
S'd2d6'
p62
sg34
I01
sg35
I6
sg36
L4283760767L
sg37
I01
sssS'o_base'
p63
(dp64
S'x_cBold'
p65
VS
sS'x_nCoordenadas'
p66
I4
sS'x_tamFrontera'
p67
I100
sS'x_tamLetra'
p68
I110
sS'x_tipoLetra'
p69
VArial Black
p70
sS'x_tamRecuadro'
p71
I100
sS'x_nomPiezas'
p72
VMerida
p73
sS'x_sepLetras'
p74
I100
ssa(dp75
g3
VBuen amigo
p76
sg5
(dp77
g7
V
sg8
I0
sg9
ViVBORw0KGgoAAAANSUhEUgAAAEAAAABACAIAAAAlC+aJAAAAA3NCSVQICAjb4U/gAAAACXBIWXMAAA7EAAAOxAGVKw4bAAAF50lEQVRogd1aS2/bRhDeJSlR5MrWw7ItyokkIwqSFLWd1DKa9Bi7KIqe8ugPKNpL27/Uooe2p6TpD4jdQ9BDAduIZQNNECCImbTWyxQpy7RsUiJ7MK1IMzIQtUD1+E7cDx+XM9rd0ezs0s8+/eTVrkqGE7PplPBqV/3z2fN+W/LvwXVlJUkKMRmQyURC8vsAGYtGOApfv5JOoi5pYiqGyXQiDqgxxsJBBsgLiiKL/q6mnuOAKPp9AiCtRkMQoF7gefy667rIVBpAzhPiGrVDQAUZC49BB8x63SdAezwD2htff/Pt3Px1oNC0fV3XAanEFRYMAlJVVdu2AJnJXAaMbVnqa7jqGGOKkgCkrlc0TQNksZD/+acfuzswN3/9xuJN8ML6xrr6dwGQS+lMOpUG5Ev1zcHRCSBxh4Zh7Dx/AchILI6Vue2tV2/2ADkdV9qb3afQEMEbgcmJCdK0+2vKuyMaifipW6gYpOVAs9kkeOUNKhyn2TgLfZ4DFcPomzm9w6getJ5HZQ2cQtP21zfWgYLn+exiFpCatl8ulwGZuZShFP6r4Q4ppbhDx3G7fZrr8ulSR1zqcEDXdRwxs4vZBfTnsLr2GMfye3fuh8NhQH7/w3eACYVC9+9+DshddXftt1VAzs8tfHBjEZBPN4/bm6MyhUKhsEgb/TXl3cFYMCQJe/ttYbRhnRzU6321qgc0m41ixTx99hwwh8d6Qsjx8dtlMCpr4BRKXFlKZ4BC0/ZX1x4DUlEUnGbmdnK2BbPR5dsrgLEtC3fIWBArdV3HSqteO9cBFgziHLNcLuOImclcxsqNzfVqtQrIleWPAWMYxpPfnwAylUzhDqtVA396XBbbm6MyhdLJi43joVnHF2cSnNNQ8yXScmCvUKJus69W9YBCqSyc7cQ9BywL7qQGGbZtt/Yuo7IGTqGq6kv1DVBkLmXu3bkPyNxObmMTJo+3bn7EZFhQePjoAWCYzHCH5XIJK9OpWax88Wz7XAds28K7ckopzjFty8IRk8kMK7GMEIJlRtXAStd1sdLn7ygQeQ7wPI/rUwMLjuMFjlqNBmk5MBOfbtpDs46VqUmeNF8XyqTlwF/5whBt6veKRQo29Y7j9M2c3uG6b4uXoxVGM5nLXUuLeF+7fHsFZ2kPHz3AkeTLL74CjGEYuMNUMoWVue0trBy1ZM5zgFJOEnH5e2BB5YA3Dp4DU5OTSizSP4N6w0Q0OjM9cfrsrYFiqdg/e3qGVtG0ivc89GugMxeyLANVeSmloVAIkF2VOJMjhGCZeWTiDn1+P1a6rouVAnE6m21QX6v47CS7mMWVwNW1x3hf+x9Li7/8+hCQ83MLWPl084/25qhMIVmSeTo02UQgEBAFrnp4RFojIAg8kwJ9taoH8DwfPLPWG4GDWu3g/BcGDaZpmqZXGx2VNXAKxlgkBs/+HcfdVXcByVgwlUwBslwuGVUYCrHM5/fjDk3zECs5jnZVnuuAoiS6ZqP47GT59gquBL57NoojZiqZwultbnsLf3rUslFvBMYY8/u6XNsYTDBZlkVfWa+S1gj4/P5mY2hO6nlBcB2vEHp20I3uowwyDg5G9aBb1yu57S2g4Hlufm4BkLquV1HETKdm8VUn3KHrurhDjqNY2Ww6WFmtdGxdwEm9hu/nZBez+LT5fzvoXsouAXLUslHPARYci47BW34DC1GUpqLeRsebQvV6nfiGZjROTk7qZ3P/rLTYbJhDc8JECHFqpneiNzS/+nnoiELFQh7cCSSEaKU9cMOFEGLVayCpIoS8eLYNTh8Iyr0IIQJxQCQhhJjmIVZWK0Ws3AHR9r1rVwmCFAgE0QbtQjwuonwpGg7hk5FLF2dwn7EIrC8QQpPKFKCYLI8zCZCJ6en2e7ORSCQejyuKMj/3fvcpJEsSdsAlBN++DYjwZyOEiD5UpaRcLDyOhG7tCI5teHw8Foaunli21Hb1WBTFQqGQz+djsVj3ERhwKIpCCJEk6dbND4XZNNwHDT4EQbh29Uq9Xo9Gwv8AkHlUIjiiabkAAAAASUVORK5CYII=
p78
sg11
L4294769635L
sg12
(dp79
g14
F1
sg15
L4283760767L
sg16
I5
sg17
(dp80
g19
I16
sg20
I9
sg21
I128
sg22
I0
sS'y'
I16
sS'x'
I0
ssg23
S'a'
sg24
I-1
sg25
I36
sg26
I2
sg27
S'm'
sg28
I20
sg21
I4
sg29
S'iVBORw0KGgoAAAANSUhEUgAAACAAAAAgCAYAAABzenr0AAAABHNCSVQICAgIfAhkiAAAAAlwSFlz\nAAASdAAAEnQB3mYfeAAAAn5JREFUWIXFls1LVFEYxn/v3EnLMoLQCPpwE5UGraIZFS0kapNldWfV\nv9AqBvpALzcxggj/gyho5QkL2wQm5ui0qCBcaIsgEopqkQvTLHM8LZyL473XsWnmTM/m3nOfh3N+\n933P/YD/LCt3kKDzfAPHayYYmSoXgHgnF3C+COxYMZaa++hOlwXAxqkHJvxmhsW6fnqMViOSPR4K\nMy2sVAfOrnIAPNPwNWjLHgs92sG1nUYBFO60xWIT8CmAgNRFiY7ZXK0xASC5g3Nc3xshOiqwOyT7\nDogp3OlSAkRyB/30TGWgUaM/hGT3gU6fwdlmDADgEe7HDIuNoN8H43KgAp1uJ1ltDGAZ4uZn+B1j\nuex+iPpKqtIXuby5FACSzzzLle0bqEwD+/2ehnFhJq7onS8GILQCnh5z69sCxDS89XsChzXVY6e4\nVFkMQN4KeGonWV3BpheCBF5YGl4JNCvchX8ByFsBTwPc/r6RuZiGcb8ncARIteJEjQEAPODOnDAT\nB96E2EdrIWVjWyFeaQAAFL3zVdAI+nWIHYeDzx2cguYsKAxwH/cnSBPol0FXmifQw/zl3qKQoF+t\nONFaSAFxv6dh+CFu2/KpIQAAG9vS1I8INIXYQwr3xHoQBbcgVwqVaYAWjU6F2G02XU9Z5yaLqoAn\nBycyiR4CORbmZwEnBUkq3NmSA3hz2TiDQNvaET2ruLHqQ1ZUC/yzZ3s+uHZEtiRwWkwBeBAn8wZg\nxCRAdg1G8wUSdJ42CYBGB37xV/uRAbL7zwiAIEnQs/kyNl13obRPQUAJnBZ/z3OlcMVIBTz14aYU\nrghL7WtljAKsgHQ/UbgR0Pe8a7/4sbUca6+rP0VeraiftTeJAAAAAElFTkSuQmCC\n'
p81
sg31
I3
sg32
S'd2d6'
p82
sg34
I01
sg35
I6
sg36
L4283760767L
sg37
I01
ssg38
L4286277729L
sg39
(dp83
g14
F1
sg15
L4283760767L
sg16
I4
sg17
(dp84
g19
I16
sg20
I8
sg21
I128
sg22
I0
sS'y'
I16
sS'x'
I0
ssg23
S'3'
sg24
I-1
sg25
I36
sg26
I1
sg27
S'm'
sg28
I22
sg21
I5
sg29
S''
sg31
I1
sg32
S'a1h8'
p85
sg34
I00
sg35
I6
sg36
L4294923520L
sg37
I00
ssg44
I0
sg45
I0
sg46
V
sg47
(dp86
g14
F1
sg15
L4281749760L
sg16
I4
sg17
(dp87
g19
I16
sg20
I8
sg21
I128
sg22
I0
sS'y'
I16
sS'x'
I0
ssg23
S'3'
sg24
I-1
sg25
I36
sg26
I1
sg27
S'm'
sg28
I22
sg21
I5
sg29
S''
sg31
I1
sg32
S'a1h8'
p88
sg34
I00
sg35
I6
sg36
L4289396480L
sg37
I00
ssg52
I00
sg53
L4284770927L
sg54
L4291283923L
sg55
L4278190080L
sg56
L4294967295L
sg57
V
sg58
(dp89
g14
F1
sg15
L4283760767L
sg16
I5
sg17
(dp90
g19
I16
sg20
I9
sg21
I128
sg22
I0
sS'y'
I16
sS'x'
I0
ssg23
S'3'
sg24
I-1
sg25
I36
sg26
I1
sg27
S'm'
sg28
I20
sg21
I4
sg29
S'iVBORw0KGgoAAAANSUhEUgAAACAAAAAgCAYAAABzenr0AAAABHNCSVQICAgIfAhkiAAAAAlwSFlz\nAAASdAAAEnQB3mYfeAAAAn5JREFUWIXFls1LVFEYxn/v3EnLMoLQCPpwE5UGraIZFS0kapNldWfV\nv9AqBvpALzcxggj/gyho5QkL2wQm5ui0qCBcaIsgEopqkQvTLHM8LZyL473XsWnmTM/m3nOfh3N+\n933P/YD/LCt3kKDzfAPHayYYmSoXgHgnF3C+COxYMZaa++hOlwXAxqkHJvxmhsW6fnqMViOSPR4K\nMy2sVAfOrnIAPNPwNWjLHgs92sG1nUYBFO60xWIT8CmAgNRFiY7ZXK0xASC5g3Nc3xshOiqwOyT7\nDogp3OlSAkRyB/30TGWgUaM/hGT3gU6fwdlmDADgEe7HDIuNoN8H43KgAp1uJ1ltDGAZ4uZn+B1j\nuex+iPpKqtIXuby5FACSzzzLle0bqEwD+/2ehnFhJq7onS8GILQCnh5z69sCxDS89XsChzXVY6e4\nVFkMQN4KeGonWV3BpheCBF5YGl4JNCvchX8ByFsBTwPc/r6RuZiGcb8ncARIteJEjQEAPODOnDAT\nB96E2EdrIWVjWyFeaQAAFL3zVdAI+nWIHYeDzx2cguYsKAxwH/cnSBPol0FXmifQw/zl3qKQoF+t\nONFaSAFxv6dh+CFu2/KpIQAAG9vS1I8INIXYQwr3xHoQBbcgVwqVaYAWjU6F2G02XU9Z5yaLqoAn\nBycyiR4CORbmZwEnBUkq3NmSA3hz2TiDQNvaET2ruLHqQ1ZUC/yzZ3s+uHZEtiRwWkwBeBAn8wZg\nxCRAdg1G8wUSdJ42CYBGB37xV/uRAbL7zwiAIEnQs/kyNl13obRPQUAJnBZ/z3OlcMVIBTz14aYU\nrghL7WtljAKsgHQ/UbgR0Pe8a7/4sbUca6+rP0VeraiftTeJAAAAAElFTkSuQmCC\n'
p91
sg31
I4
sg32
S'd2d6'
p92
sg34
I01
sg35
I6
sg36
L4283760767L
sg37
I01
sssg63
(dp93
g65
VS
sg66
I4
sg67
I100
sg68
I90
sg69
VArial
p94
sg71
I100
sg72
VMerida
p95
sg74
I100
ssa.